target datalayout = "e-m:e-p270:32:32-p271:32:32-p272:64:64-i64:64-i128:128-f80:128-n8:16:32:64-S128"
target triple = "x86_64-pc-linux-gnu"

@hf_network_id = internal global i32 0, align 4
@hf_net_aux_id = internal global i32 0, align 4

; Function Attrs: null_pointer_is_valid sspstrong uwtable
define internal signext i16 @dissect_tgt_net_info(ptr noundef %0, i16 noundef signext %1, ptr noundef %2) #0 {
  %4 = alloca i16, align 2
  %5 = alloca ptr, align 8
  %6 = alloca i16, align 2
  %7 = alloca ptr, align 8
  %8 = alloca i8, align 1
  %9 = alloca i32, align 4
  store ptr %0, ptr %5, align 8
  store i16 %1, ptr %6, align 2
  store ptr %2, ptr %7, align 8
  call void @llvm.lifetime.start.p0(i64 1, ptr %8) #5
  store i8 0, ptr %8, align 1
  %10 = load ptr, ptr %5, align 8
  %11 = load i16, ptr %6, align 2
  %12 = sext i16 %11 to i32
  %13 = call zeroext i8 @tvb_get_uint8(ptr noundef %10, i32 noundef %12)
  %14 = icmp ne i8 %13, 0
  br i1 %14, label %72, label %15

15:                                               ; preds = %3
  %16 = load i16, ptr %6, align 2
  %17 = sext i16 %16 to i32
  %18 = add i32 %17, 1
  %19 = trunc i32 %18 to i16
  store i16 %19, ptr %6, align 2
  %20 = load ptr, ptr %5, align 8
  %21 = load i16, ptr %6, align 2
  %22 = sext i16 %21 to i32
  %23 = call zeroext i8 @tvb_get_uint8(ptr noundef %20, i32 noundef %22)
  store i8 %23, ptr %8, align 1
  %24 = load ptr, ptr %7, align 8
  %25 = load i32, ptr @hf_network_id, align 4
  %26 = load ptr, ptr %5, align 8
  %27 = load i16, ptr %6, align 2
  %28 = sext i16 %27 to i32
  %29 = add i32 %28, 1
  %30 = load i8, ptr %8, align 1
  %31 = zext i8 %30 to i32
  %32 = call ptr @proto_tree_add_item(ptr noundef %24, i32 noundef %25, ptr noundef %26, i32 noundef %29, i32 noundef %31, i32 noundef 0)
  %33 = load i8, ptr %8, align 1
  %34 = zext i8 %33 to i32
  %35 = add i32 %34, 2
  %36 = load i16, ptr %6, align 2
  %37 = sext i16 %36 to i32
  %38 = add i32 %37, %35
  %39 = trunc i32 %38 to i16
  store i16 %39, ptr %6, align 2
  %40 = load ptr, ptr %5, align 8
  %41 = load i16, ptr %6, align 2
  %42 = sext i16 %41 to i32
  %43 = call zeroext i8 @tvb_get_uint8(ptr noundef %40, i32 noundef %42)
  %44 = icmp ne i8 %43, 0
  br i1 %44, label %67, label %45

45:                                               ; preds = %15
  %46 = load i16, ptr %6, align 2
  %47 = sext i16 %46 to i32
  %48 = add i32 %47, 1
  %49 = trunc i32 %48 to i16
  store i16 %49, ptr %6, align 2
  %50 = load ptr, ptr %5, align 8
  %51 = load i16, ptr %6, align 2
  %52 = sext i16 %51 to i32
  %53 = call zeroext i8 @tvb_get_uint8(ptr noundef %50, i32 noundef %52)
  store i8 %53, ptr %8, align 1
  %54 = load ptr, ptr %7, align 8
  %55 = load i32, ptr @hf_net_aux_id, align 4
  %56 = load ptr, ptr %5, align 8
  %57 = load i16, ptr %6, align 2
  %58 = sext i16 %57 to i32
  %59 = add i32 %58, 1
  %60 = load i8, ptr %8, align 1
  %61 = zext i8 %60 to i32
  %62 = call ptr @proto_tree_add_item(ptr noundef %54, i32 noundef %55, ptr noundef %56, i32 noundef %59, i32 noundef %61, i32 noundef 0)
  %63 = load i16, ptr %6, align 2
  %64 = sext i16 %63 to i32
  %65 = add i32 %64, 1
  %66 = trunc i32 %65 to i16
  store i16 %66, ptr %4, align 2
  store i32 1, ptr %9, align 4
  br label %82

67:                                               ; preds = %15
  %68 = load i16, ptr %6, align 2
  %69 = sext i16 %68 to i32
  %70 = add i32 %69, 2
  %71 = trunc i32 %70 to i16
  store i16 %71, ptr %4, align 2
  store i32 1, ptr %9, align 4
  br label %82

72:                                               ; preds = %3
  %73 = load i16, ptr %6, align 2
  %74 = sext i16 %73 to i32
  %75 = add i32 %74, 1
  %76 = trunc i32 %75 to i16
  store i16 %76, ptr %6, align 2
  %77 = load ptr, ptr %5, align 8
  %78 = load i16, ptr %6, align 2
  %79 = load ptr, ptr %7, align 8
  %80 = call signext i16 @dissect_link_addr(ptr noundef %77, i16 noundef signext %78, ptr noundef %79)
  store i16 %80, ptr %6, align 2
  %81 = load i16, ptr %6, align 2
  store i16 %81, ptr %4, align 2
  store i32 1, ptr %9, align 4
  br label %82

82:                                               ; preds = %72, %67, %45
  call void @llvm.lifetime.end.p0(i64 1, ptr %8) #5
  %83 = load i16, ptr %4, align 2
  ret i16 %83
}