; Function Attrs: null_pointer_is_valid sspstrong uwtable
define internal signext i16 @dissect_tgt_net_info(ptr noundef %0, i16 noundef signext %1, ptr noundef %2) #0 {
  %4 = sext i16 %1 to i32
  %5 = tail call zeroext i8 @tvb_get_uint8(ptr noundef %0, i32 noundef %4)
  %.not = icmp eq i8 %5, 0
  %6 = add i16 %1, 1
  br i1 %.not, label %7, label %30

7:                                                ; preds = %3
  %8 = sext i16 %6 to i32
  %9 = tail call zeroext i8 @tvb_get_uint8(ptr noundef %0, i32 noundef %8)
  %10 = load i32, ptr @hf_network_id, align 4
  %11 = add nsw i32 %8, 1
  %12 = zext i8 %9 to i32
  %13 = tail call ptr @proto_tree_add_item(ptr noundef %2, i32 noundef %10, ptr noundef %0, i32 noundef %11, i32 noundef %12, i32 noundef 0)
  %14 = zext i8 %9 to i16
  %15 = add i16 %1, 3
  %16 = add i16 %15, %14
  %17 = sext i16 %16 to i32
  %18 = tail call zeroext i8 @tvb_get_uint8(ptr noundef %0, i32 noundef %17)
  %.not27 = icmp eq i8 %18, 0
  br i1 %.not27, label %19, label %28

19:                                               ; preds = %7
  %20 = add i16 %16, 1
  %21 = sext i16 %20 to i32
  %22 = tail call zeroext i8 @tvb_get_uint8(ptr noundef %0, i32 noundef %21)
  %23 = load i32, ptr @hf_net_aux_id, align 4
  %24 = add nsw i32 %21, 1
  %25 = zext i8 %22 to i32
  %26 = tail call ptr @proto_tree_add_item(ptr noundef %2, i32 noundef %23, ptr noundef %0, i32 noundef %24, i32 noundef %25, i32 noundef 0)
  %27 = trunc i32 %24 to i16
  br label %32

28:                                               ; preds = %7
  %29 = add i16 %16, 2
  br label %32

30:                                               ; preds = %3
  %31 = tail call fastcc signext i16 @dissect_link_addr(ptr noundef %0, i16 noundef signext %6, ptr noundef %2)
  br label %32

32:                                               ; preds = %30, %28, %19
  %.0 = phi i16 [ %31, %30 ], [ %29, %28 ], [ %27, %19 ]
  ret i16 %.0
}